; Function Attrs: mustprogress nofree nounwind uwtable
define noundef i32 @_ZN5folly8external8farmhash10farmhashnt6Hash32EPKcm(ptr noundef readnone captures(none) %0, i64 noundef %1) local_unnamed_addr #1 {
  %3 = load i8, ptr @_ZN5folly8external8farmhash4test25returnZeroIfMisconfiguredE, align 1, !tbaa !13, !range !15, !noundef !16
  %4 = trunc nuw i8 %3 to i1
  br i1 %4, label %5, label %6

5:                                                ; preds = %2
  ret i32 0

6:                                                ; preds = %2
  tail call void @_ZSt9terminatev() #4
  unreachable
}